target datalayout = "e-m:e-p270:32:32-p271:32:32-p272:64:64-i64:64-i128:128-f80:128-n8:16:32:64-S128"
target triple = "x86_64-unknown-linux-gnu"

module asm ".section \22.export_symbol\22,\22a\22 ; __export_symbol_usb_register_notify: ; .asciz \22GPL\22 ; .asciz \22\22 ; .balign 8 ; .quad usb_register_notify ; .previous"
module asm ".section \22.export_symbol\22,\22a\22 ; __export_symbol_usb_unregister_notify: ; .asciz \22GPL\22 ; .asciz \22\22 ; .balign 8 ; .quad usb_unregister_notify ; .previous"

%struct.blocking_notifier_head = type { %struct.rw_semaphore, ptr }
%struct.rw_semaphore = type { %struct.atomic64_t, %struct.atomic64_t, %struct.optimistic_spin_queue, %struct.raw_spinlock, %struct.list_head }
%struct.atomic64_t = type { i64 }
%struct.optimistic_spin_queue = type { %struct.atomic_t }
%struct.atomic_t = type { i32 }
%struct.raw_spinlock = type { %struct.qspinlock }
%struct.qspinlock = type { %union.anon }
%union.anon = type { %struct.atomic_t }
%struct.list_head = type { ptr, ptr }

@usb_notifier_list = internal global %struct.blocking_notifier_head { %struct.rw_semaphore { %struct.atomic64_t zeroinitializer, %struct.atomic64_t zeroinitializer, %struct.optimistic_spin_queue zeroinitializer, %struct.raw_spinlock zeroinitializer, %struct.list_head { ptr getelementptr (i8, ptr @usb_notifier_list, i64 24), ptr getelementptr (i8, ptr @usb_notifier_list, i64 24) } }, ptr null }, align 8
@__UNIQUE_ID___addressable_usb_register_notify321 = internal global ptr @usb_register_notify, section ".discard.addressable", align 8
@__UNIQUE_ID___addressable_usb_unregister_notify322 = internal global ptr @usb_unregister_notify, section ".discard.addressable", align 8
@llvm.compiler.used = appending global [2 x ptr] [ptr @__UNIQUE_ID___addressable_usb_register_notify321, ptr @__UNIQUE_ID___addressable_usb_unregister_notify322], section "llvm.metadata"

; Function Attrs: fn_ret_thunk_extern nounwind null_pointer_is_valid
define dso_local void @usb_register_notify(ptr noundef %0) #0 align 16 {
  %2 = tail call i32 @blocking_notifier_chain_register(ptr noundef nonnull @usb_notifier_list, ptr noundef %0) #2
  ret void
}

; Function Attrs: null_pointer_is_valid
declare dso_local i32 @blocking_notifier_chain_register(ptr noundef, ptr noundef) local_unnamed_addr #1

; Function Attrs: fn_ret_thunk_extern nounwind null_pointer_is_valid
define dso_local void @usb_unregister_notify(ptr noundef %0) #0 align 16 {
  %2 = tail call i32 @blocking_notifier_chain_unregister(ptr noundef nonnull @usb_notifier_list, ptr noundef %0) #2
  ret void
}

; Function Attrs: null_pointer_is_valid
declare dso_local i32 @blocking_notifier_chain_unregister(ptr noundef, ptr noundef) local_unnamed_addr #1

; Function Attrs: fn_ret_thunk_extern nounwind null_pointer_is_valid
define dso_local void @usb_notify_add_device(ptr noundef %0) local_unnamed_addr #0 align 16 {
  %2 = tail call i32 @blocking_notifier_call_chain(ptr noundef nonnull @usb_notifier_list, i64 noundef 1, ptr noundef %0) #2
  ret void
}

; Function Attrs: null_pointer_is_valid
declare dso_local i32 @blocking_notifier_call_chain(ptr noundef, i64 noundef, ptr noundef) local_unnamed_addr #1

; Function Attrs: fn_ret_thunk_extern nounwind null_pointer_is_valid
define dso_local void @usb_notify_remove_device(ptr noundef %0) local_unnamed_addr #0 align 16 {
  %2 = tail call i32 @blocking_notifier_call_chain(ptr noundef nonnull @usb_notifier_list, i64 noundef 2, ptr noundef %0) #2
  ret void
}

; Function Attrs: fn_ret_thunk_extern nounwind null_pointer_is_valid
define dso_local void @usb_notify_add_bus(ptr noundef %0) local_unnamed_addr #0 align 16 {
  %2 = tail call i32 @blocking_notifier_call_chain(ptr noundef nonnull @usb_notifier_list, i64 noundef 3, ptr noundef %0) #2
  ret void
}

; Function Attrs: fn_ret_thunk_extern nounwind null_pointer_is_valid
define dso_local void @usb_notify_remove_bus(ptr noundef %0) local_unnamed_addr #0 align 16 {
  %2 = tail call i32 @blocking_notifier_call_chain(ptr noundef nonnull @usb_notifier_list, i64 noundef 4, ptr noundef %0) #2
  ret void
}


!llvm.module.flags = !{!0, !1, !2, !3, !4}

!0 = !{i32 1, !"wchar_size", i32 2}
!1 = !{i32 8, !"cf-protection-branch", i32 1}
!2 = !{i32 4, !"function_return_thunk_extern", i32 1}
!3 = !{i32 4, !"indirect_branch_cs_prefix", i32 1}
!4 = !{i32 4, !"SkipRaxSetup", i32 1}
